; Function Attrs: mustprogress uwtable
define noundef nonnull align 8 dereferenceable(64) ptr @_ZNK6icu_759LocaleKey17currentDescriptorERNS_13UnicodeStringE(ptr noundef nonnull align 8 dereferenceable(272) %this, ptr noundef nonnull returned align 8 dereferenceable(64) %result) unnamed_addr #1 align 2 {
entry:
  %srcChar.addr.i = alloca i16, align 2
  %fUnion.i = getelementptr inbounds i8, ptr %this, i64 216
  %0 = load i16, ptr %fUnion.i, align 8
  %conv2.i3 = and i16 %0, 1
  %tobool.not = icmp eq i16 %conv2.i3, 0
  br i1 %tobool.not, label %if.then, label %if.else

if.then:                                          ; preds = %entry
  %_currentID = getelementptr inbounds i8, ptr %this, i64 208
  %vtable = load ptr, ptr %this, align 8
  %vfn = getelementptr inbounds i8, ptr %vtable, i64 72
  %1 = load ptr, ptr %vfn, align 8
  %call2 = tail call noundef nonnull align 8 dereferenceable(64) ptr %1(ptr noundef nonnull align 8 dereferenceable(272) %this, ptr noundef nonnull align 8 dereferenceable(64) %result)
  %2 = load i16, ptr @_ZN6icu_7513ICUServiceKey16PREFIX_DELIMITERE, align 2
  call void @llvm.lifetime.start.p0(i64 2, ptr nonnull %srcChar.addr.i)
  store i16 %2, ptr %srcChar.addr.i, align 2
  %call.i = call noundef nonnull align 8 dereferenceable(64) ptr @_ZN6icu_7513UnicodeString8doAppendEPKDsii(ptr noundef nonnull align 8 dereferenceable(64) %call2, ptr noundef nonnull %srcChar.addr.i, i32 noundef 0, i32 noundef 1)
  call void @llvm.lifetime.end.p0(i64 2, ptr nonnull %srcChar.addr.i)
  %3 = load i16, ptr %fUnion.i, align 8
  %cmp.i.i.i = icmp slt i16 %3, 0
  %4 = ashr i16 %3, 5
  %shr.i.i.i = sext i16 %4 to i32
  %fLength.i.i = getelementptr inbounds i8, ptr %this, i64 220
  %5 = load i32, ptr %fLength.i.i, align 4
  %cond.i.i = select i1 %cmp.i.i.i, i32 %5, i32 %shr.i.i.i
  %call2.i = call noundef nonnull align 8 dereferenceable(64) ptr @_ZN6icu_7513UnicodeString8doAppendERKS0_ii(ptr noundef nonnull align 8 dereferenceable(64) %call.i, ptr noundef nonnull align 8 dereferenceable(64) %_currentID, i32 noundef 0, i32 noundef %cond.i.i)
  br label %if.end

if.else:                                          ; preds = %entry
  tail call void @_ZN6icu_7513UnicodeString10setToBogusEv(ptr noundef nonnull align 8 dereferenceable(64) %result)
  br label %if.end

if.end:                                           ; preds = %if.else, %if.then
  ret ptr %result
}